target datalayout = "e-m:e-p270:32:32-p271:32:32-p272:64:64-i64:64-i128:128-f80:128-n8:16:32:64-S128"
target triple = "x86_64-pc-linux-gnu"

@_ZN9Arguments16_jvm_flags_arrayE = hidden global ptr null, align 8
@_ZN9Arguments14_num_jvm_flagsE = hidden global i32 0, align 4

; Function Attrs: mustprogress nounwind uwtable
define hidden void @_ZN9Arguments10add_stringEPPPcPiPKc(ptr noundef %0, ptr noundef %1, ptr noundef %2) #1 align 2 {
  %4 = alloca ptr, align 8
  %5 = alloca ptr, align 8
  %6 = alloca ptr, align 8
  %7 = alloca i32, align 4
  store ptr %0, ptr %4, align 8
  store ptr %1, ptr %5, align 8
  store ptr %2, ptr %6, align 8
  %8 = load ptr, ptr %6, align 8
  %9 = icmp eq ptr %8, null
  br i1 %9, label %10, label %11

10:                                               ; preds = %3
  br label %43

11:                                               ; preds = %3
  %12 = load ptr, ptr %5, align 8
  %13 = load i32, ptr %12, align 4
  %14 = add nsw i32 %13, 1
  store i32 %14, ptr %7, align 4
  %15 = load ptr, ptr %4, align 8
  %16 = load ptr, ptr %15, align 8
  %17 = icmp eq ptr %16, null
  br i1 %17, label %18, label %24

18:                                               ; preds = %11
  %19 = load i32, ptr %7, align 4
  %20 = sext i32 %19 to i64
  %21 = mul i64 %20, 8
  %22 = call noundef ptr @_Z12AllocateHeapm8MEMFLAGSN17AllocFailStrategy13AllocFailEnumE(i64 noundef %21, i8 noundef zeroext 19, i32 noundef 0)
  %23 = load ptr, ptr %4, align 8
  store ptr %22, ptr %23, align 8
  br label %32

24:                                               ; preds = %11
  %25 = load ptr, ptr %4, align 8
  %26 = load ptr, ptr %25, align 8
  %27 = load i32, ptr %7, align 4
  %28 = sext i32 %27 to i64
  %29 = mul i64 %28, 8
  %30 = call noundef ptr @_Z14ReallocateHeapPcm8MEMFLAGSN17AllocFailStrategy13AllocFailEnumE(ptr noundef %26, i64 noundef %29, i8 noundef zeroext 19, i32 noundef 0)
  %31 = load ptr, ptr %4, align 8
  store ptr %30, ptr %31, align 8
  br label %32

32:                                               ; preds = %24, %18
  %33 = load ptr, ptr %6, align 8
  %34 = call noundef ptr @_ZN2os16strdup_check_oomEPKc8MEMFLAGS(ptr noundef %33, i8 noundef zeroext 9)
  %35 = load ptr, ptr %4, align 8
  %36 = load ptr, ptr %35, align 8
  %37 = load ptr, ptr %5, align 8
  %38 = load i32, ptr %37, align 4
  %39 = sext i32 %38 to i64
  %40 = getelementptr inbounds ptr, ptr %36, i64 %39
  store ptr %34, ptr %40, align 8
  %41 = load i32, ptr %7, align 4
  %42 = load ptr, ptr %5, align 8
  store i32 %41, ptr %42, align 4
  br label %43

43:                                               ; preds = %32, %10
  ret void
}

; Function Attrs: mustprogress nounwind uwtable
define hidden void @_ZN9Arguments15build_jvm_flagsEPKc(ptr noundef %0) #1 align 2 {
  %2 = alloca ptr, align 8
  store ptr %0, ptr %2, align 8
  %3 = load ptr, ptr %2, align 8
  call void @_ZN9Arguments10add_stringEPPPcPiPKc(ptr noundef @_ZN9Arguments16_jvm_flags_arrayE, ptr noundef @_ZN9Arguments14_num_jvm_flagsE, ptr noundef %3)
  ret void
}