; Function Attrs: mustprogress nounwind uwtable
define hidden void @_ZN9Arguments15build_jvm_flagsEPKc(ptr noundef %0) local_unnamed_addr #0 align 2 {
  %2 = icmp eq ptr %0, null
  br i1 %2, label %_ZN9Arguments10add_stringEPPPcPiPKc.exit, label %3

3:                                                ; preds = %1
  %4 = load i32, ptr @_ZN9Arguments14_num_jvm_flagsE, align 4
  %5 = add nsw i32 %4, 1
  %6 = load ptr, ptr @_ZN9Arguments16_jvm_flags_arrayE, align 8
  %7 = icmp eq ptr %6, null
  %8 = sext i32 %5 to i64
  %9 = shl nsw i64 %8, 3
  br i1 %7, label %10, label %12

10:                                               ; preds = %3
  %11 = tail call noundef ptr @_Z12AllocateHeapm8MEMFLAGSN17AllocFailStrategy13AllocFailEnumE(i64 noundef %9, i8 noundef zeroext 19, i32 noundef 0) #31
  br label %14

12:                                               ; preds = %3
  %13 = tail call noundef ptr @_Z14ReallocateHeapPcm8MEMFLAGSN17AllocFailStrategy13AllocFailEnumE(ptr noundef nonnull %6, i64 noundef %9, i8 noundef zeroext 19, i32 noundef 0) #31
  br label %14

14:                                               ; preds = %12, %10
  %storemerge.i = phi ptr [ %13, %12 ], [ %11, %10 ]
  store ptr %storemerge.i, ptr @_ZN9Arguments16_jvm_flags_arrayE, align 8
  %15 = tail call noundef ptr @_ZN2os16strdup_check_oomEPKc8MEMFLAGS(ptr noundef nonnull %0, i8 noundef zeroext 9) #31
  %16 = load ptr, ptr @_ZN9Arguments16_jvm_flags_arrayE, align 8
  %17 = load i32, ptr @_ZN9Arguments14_num_jvm_flagsE, align 4
  %18 = sext i32 %17 to i64
  %19 = getelementptr inbounds ptr, ptr %16, i64 %18
  store ptr %15, ptr %19, align 8
  store i32 %5, ptr @_ZN9Arguments14_num_jvm_flagsE, align 4
  br label %_ZN9Arguments10add_stringEPPPcPiPKc.exit

_ZN9Arguments10add_stringEPPPcPiPKc.exit:         ; preds = %1, %14
  ret void
}